target datalayout = "e-m:e-p270:32:32-p271:32:32-p272:64:64-i64:64-i128:128-f80:128-n8:16:32:64-S128"
target triple = "x86_64-pc-linux-gnu"

%struct.interface_description = type { i32, i32, i64, i64 }
%struct.block_data_arg = type { ptr, ptr, ptr }
%struct.info = type { i32, i32, i32, i32, i32, i32, ptr, ptr }

@.str.38 = private unnamed_addr constant [4 x i8] c" %u\00", align 1
@hf_pcapng_interface_description_link_type = internal global i32 0, align 4
@hf_pcapng_interface_description_reserved = internal global i32 0, align 4
@hf_pcapng_interface_description_snap_length = internal global i32 0, align 4

; Function Attrs: alwaysinline nounwind
define internal ptr @memset.inline(ptr %0, i32 %1, i64 %2) #9 {
  %4 = alloca ptr, align 8
  %5 = alloca i32, align 4
  %6 = alloca i64, align 8
  store ptr %0, ptr %4, align 8
  store i32 %1, ptr %5, align 4
  store i64 %2, ptr %6, align 8
  %7 = load ptr, ptr %4, align 8
  %8 = load i32, ptr %5, align 4
  %9 = load i64, ptr %6, align 8
  %10 = load ptr, ptr %4, align 8
  %11 = call i64 @llvm.objectsize.i64.p0(ptr %10, i1 false, i1 true, i1 true)
  %12 = call ptr @__memset_chk(ptr noundef %7, i32 noundef %8, i64 noundef %9, i64 noundef %11) #14
  ret ptr %12
}

; Function Attrs: null_pointer_is_valid sspstrong uwtable
define internal void @dissect_idb_data(ptr noundef %0, ptr noundef %1, ptr noundef %2, ptr noundef %3) #0 {
  %5 = alloca ptr, align 8
  %6 = alloca ptr, align 8
  %7 = alloca ptr, align 8
  %8 = alloca ptr, align 8
  %9 = alloca i32, align 4
  %10 = alloca %struct.interface_description, align 8
  store ptr %0, ptr %5, align 8
  store ptr %1, ptr %6, align 8
  store ptr %2, ptr %7, align 8
  store ptr %3, ptr %8, align 8
  call void @llvm.lifetime.start.p0(i64 4, ptr %9) #14
  store i32 0, ptr %9, align 4
  call void @llvm.lifetime.start.p0(i64 24, ptr %10) #14
  %11 = call ptr @memset.inline(ptr noundef %10, i32 noundef 0, i64 noundef 24) #14
  %12 = getelementptr inbounds nuw %struct.interface_description, ptr %10, i32 0, i32 2
  store i64 1000000, ptr %12, align 8
  %13 = load ptr, ptr %8, align 8
  %14 = getelementptr inbounds nuw %struct.block_data_arg, ptr %13, i32 0, i32 0
  %15 = load ptr, ptr %14, align 8
  %16 = load ptr, ptr %8, align 8
  %17 = getelementptr inbounds nuw %struct.block_data_arg, ptr %16, i32 0, i32 2
  %18 = load ptr, ptr %17, align 8
  %19 = getelementptr inbounds nuw %struct.info, ptr %18, i32 0, i32 2
  %20 = load i32, ptr %19, align 8
  call void (ptr, ptr, ...) @proto_item_append_text(ptr noundef %15, ptr noundef @.str.38, i32 noundef %20)
  %21 = load ptr, ptr %8, align 8
  %22 = getelementptr inbounds nuw %struct.block_data_arg, ptr %21, i32 0, i32 2
  %23 = load ptr, ptr %22, align 8
  %24 = getelementptr inbounds nuw %struct.info, ptr %23, i32 0, i32 2
  %25 = load i32, ptr %24, align 8
  %26 = add i32 %25, 1
  store i32 %26, ptr %24, align 8
  %27 = load ptr, ptr %5, align 8
  %28 = load i32, ptr @hf_pcapng_interface_description_link_type, align 4
  %29 = load ptr, ptr %7, align 8
  %30 = load i32, ptr %9, align 4
  %31 = load ptr, ptr %8, align 8
  %32 = getelementptr inbounds nuw %struct.block_data_arg, ptr %31, i32 0, i32 2
  %33 = load ptr, ptr %32, align 8
  %34 = getelementptr inbounds nuw %struct.info, ptr %33, i32 0, i32 5
  %35 = load i32, ptr %34, align 4
  %36 = call ptr @proto_tree_add_item(ptr noundef %27, i32 noundef %28, ptr noundef %29, i32 noundef %30, i32 noundef 2, i32 noundef %35)
  %37 = load ptr, ptr %7, align 8
  %38 = load i32, ptr %9, align 4
  %39 = load ptr, ptr %8, align 8
  %40 = getelementptr inbounds nuw %struct.block_data_arg, ptr %39, i32 0, i32 2
  %41 = load ptr, ptr %40, align 8
  %42 = getelementptr inbounds nuw %struct.info, ptr %41, i32 0, i32 5
  %43 = load i32, ptr %42, align 4
  %44 = call zeroext i16 @tvb_get_uint16(ptr noundef %37, i32 noundef %38, i32 noundef %43)
  %45 = zext i16 %44 to i32
  %46 = getelementptr inbounds nuw %struct.interface_description, ptr %10, i32 0, i32 0
  store i32 %45, ptr %46, align 8
  %47 = load i32, ptr %9, align 4
  %48 = add i32 %47, 2
  store i32 %48, ptr %9, align 4
  %49 = load ptr, ptr %5, align 8
  %50 = load i32, ptr @hf_pcapng_interface_description_reserved, align 4
  %51 = load ptr, ptr %7, align 8
  %52 = load i32, ptr %9, align 4
  %53 = load ptr, ptr %8, align 8
  %54 = getelementptr inbounds nuw %struct.block_data_arg, ptr %53, i32 0, i32 2
  %55 = load ptr, ptr %54, align 8
  %56 = getelementptr inbounds nuw %struct.info, ptr %55, i32 0, i32 5
  %57 = load i32, ptr %56, align 4
  %58 = call ptr @proto_tree_add_item(ptr noundef %49, i32 noundef %50, ptr noundef %51, i32 noundef %52, i32 noundef 2, i32 noundef %57)
  %59 = load i32, ptr %9, align 4
  %60 = add i32 %59, 2
  store i32 %60, ptr %9, align 4
  %61 = load ptr, ptr %5, align 8
  %62 = load i32, ptr @hf_pcapng_interface_description_snap_length, align 4
  %63 = load ptr, ptr %7, align 8
  %64 = load i32, ptr %9, align 4
  %65 = load ptr, ptr %8, align 8
  %66 = getelementptr inbounds nuw %struct.block_data_arg, ptr %65, i32 0, i32 2
  %67 = load ptr, ptr %66, align 8
  %68 = getelementptr inbounds nuw %struct.info, ptr %67, i32 0, i32 5
  %69 = load i32, ptr %68, align 4
  %70 = call ptr @proto_tree_add_item(ptr noundef %61, i32 noundef %62, ptr noundef %63, i32 noundef %64, i32 noundef 4, i32 noundef %69)
  %71 = load ptr, ptr %7, align 8
  %72 = load i32, ptr %9, align 4
  %73 = load ptr, ptr %8, align 8
  %74 = getelementptr inbounds nuw %struct.block_data_arg, ptr %73, i32 0, i32 2
  %75 = load ptr, ptr %74, align 8
  %76 = getelementptr inbounds nuw %struct.info, ptr %75, i32 0, i32 5
  %77 = load i32, ptr %76, align 4
  %78 = call i32 @tvb_get_uint32(ptr noundef %71, i32 noundef %72, i32 noundef %77)
  %79 = getelementptr inbounds nuw %struct.interface_description, ptr %10, i32 0, i32 1
  store i32 %78, ptr %79, align 4
  %80 = load i32, ptr %9, align 4
  %81 = add i32 %80, 4
  store i32 %81, ptr %9, align 4
  %82 = load ptr, ptr %5, align 8
  %83 = load ptr, ptr %6, align 8
  %84 = load ptr, ptr %7, align 8
  %85 = load i32, ptr %9, align 4
  %86 = load ptr, ptr %8, align 8
  %87 = getelementptr inbounds nuw %struct.block_data_arg, ptr %86, i32 0, i32 2
  %88 = load ptr, ptr %87, align 8
  %89 = getelementptr inbounds nuw %struct.info, ptr %88, i32 0, i32 5
  %90 = load i32, ptr %89, align 4
  %91 = call i32 @dissect_options(ptr noundef %82, ptr noundef %83, i32 noundef 1, ptr noundef %84, i32 noundef %85, i32 noundef %90, ptr noundef %10)
  %92 = load ptr, ptr %8, align 8
  %93 = getelementptr inbounds nuw %struct.block_data_arg, ptr %92, i32 0, i32 2
  %94 = load ptr, ptr %93, align 8
  %95 = getelementptr inbounds nuw %struct.info, ptr %94, i32 0, i32 6
  %96 = load ptr, ptr %95, align 8
  call void @wmem_array_append(ptr noundef %96, ptr noundef %10, i32 noundef 1)
  call void @llvm.lifetime.end.p0(i64 24, ptr %10) #14
  call void @llvm.lifetime.end.p0(i64 4, ptr %9) #14
  ret void
}