; Function Attrs: null_pointer_is_valid sspstrong uwtable
define internal fastcc void @dissect_idb_data(ptr noundef %0, ptr noundef %1, ptr noundef %2, ptr noundef readonly captures(none) %3) unnamed_addr #0 {
  %5 = alloca %struct.interface_description, align 8
  call void @llvm.lifetime.start.p0(i64 24, ptr nonnull %5) #9
  %6 = getelementptr inbounds nuw i8, ptr %5, i64 16
  store i64 0, ptr %6, align 8
  %7 = getelementptr inbounds nuw i8, ptr %5, i64 8
  store i64 1000000, ptr %7, align 8
  %8 = load ptr, ptr %3, align 8
  %9 = getelementptr inbounds nuw i8, ptr %3, i64 16
  %10 = load ptr, ptr %9, align 8
  %11 = getelementptr inbounds nuw i8, ptr %10, i64 8
  %12 = load i32, ptr %11, align 8
  tail call void (ptr, ptr, ...) @proto_item_append_text(ptr noundef %8, ptr noundef nonnull @.str.38, i32 noundef %12)
  %13 = load ptr, ptr %9, align 8
  %14 = getelementptr inbounds nuw i8, ptr %13, i64 8
  %15 = load i32, ptr %14, align 8
  %16 = add i32 %15, 1
  store i32 %16, ptr %14, align 8
  %17 = load i32, ptr @hf_pcapng_interface_description_link_type, align 4
  %18 = load ptr, ptr %9, align 8
  %19 = getelementptr inbounds nuw i8, ptr %18, i64 20
  %20 = load i32, ptr %19, align 4
  %21 = tail call ptr @proto_tree_add_item(ptr noundef %0, i32 noundef %17, ptr noundef %2, i32 noundef 0, i32 noundef 2, i32 noundef %20)
  %22 = load ptr, ptr %9, align 8
  %23 = getelementptr inbounds nuw i8, ptr %22, i64 20
  %24 = load i32, ptr %23, align 4
  %25 = tail call zeroext i16 @tvb_get_uint16(ptr noundef %2, i32 noundef 0, i32 noundef %24)
  %26 = zext i16 %25 to i32
  store i32 %26, ptr %5, align 8
  %27 = load i32, ptr @hf_pcapng_interface_description_reserved, align 4
  %28 = load ptr, ptr %9, align 8
  %29 = getelementptr inbounds nuw i8, ptr %28, i64 20
  %30 = load i32, ptr %29, align 4
  %31 = tail call ptr @proto_tree_add_item(ptr noundef %0, i32 noundef %27, ptr noundef %2, i32 noundef 2, i32 noundef 2, i32 noundef %30)
  %32 = load i32, ptr @hf_pcapng_interface_description_snap_length, align 4
  %33 = load ptr, ptr %9, align 8
  %34 = getelementptr inbounds nuw i8, ptr %33, i64 20
  %35 = load i32, ptr %34, align 4
  %36 = tail call ptr @proto_tree_add_item(ptr noundef %0, i32 noundef %32, ptr noundef %2, i32 noundef 4, i32 noundef 4, i32 noundef %35)
  %37 = load ptr, ptr %9, align 8
  %38 = getelementptr inbounds nuw i8, ptr %37, i64 20
  %39 = load i32, ptr %38, align 4
  %40 = tail call i32 @tvb_get_uint32(ptr noundef %2, i32 noundef 4, i32 noundef %39)
  %41 = getelementptr inbounds nuw i8, ptr %5, i64 4
  store i32 %40, ptr %41, align 4
  %42 = load ptr, ptr %9, align 8
  %43 = getelementptr inbounds nuw i8, ptr %42, i64 20
  %44 = load i32, ptr %43, align 4
  %45 = call i32 @dissect_options(ptr noundef %0, ptr noundef %1, i32 noundef 1, ptr noundef %2, i32 noundef 8, i32 noundef %44, ptr noundef nonnull %5)
  %46 = load ptr, ptr %9, align 8
  %47 = getelementptr inbounds nuw i8, ptr %46, i64 24
  %48 = load ptr, ptr %47, align 8
  call void @wmem_array_append(ptr noundef %48, ptr noundef nonnull %5, i32 noundef 1)
  call void @llvm.lifetime.end.p0(i64 24, ptr nonnull %5) #9
  ret void
}